; Function Attrs: nounwind uwtable
define ptr @wolfSSL_get_cipher_list(i32 noundef %0) local_unnamed_addr #0 {
  %2 = tail call ptr @GetCipherNames() #22
  %3 = tail call i32 @GetCipherNamesSize() #22
  %4 = icmp sge i32 %0, %3
  %5 = icmp slt i32 %0, 0
  %or.cond = or i1 %5, %4
  br i1 %or.cond, label %10, label %6

6:                                                ; preds = %1
  %7 = zext nneg i32 %0 to i64
  %8 = getelementptr inbounds nuw %struct.CipherSuiteInfo, ptr %2, i64 %7
  %9 = load ptr, ptr %8, align 8, !tbaa !121
  br label %10

10:                                               ; preds = %1, %6
  %.0 = phi ptr [ %9, %6 ], [ null, %1 ]
  ret ptr %.0
}